; Function Attrs: mustprogress nounwind uwtable
define dso_local void @_ZN3net22QuicClientPromisedInfoC2EPNS_21QuicClientSessionBaseEjNSt7__cxx1112basic_stringIcSt11char_traitsIcESaIcEEE(ptr noundef nonnull align 8 dereferenceable(96) %this, ptr noundef %session, i32 noundef %id, ptr noundef nonnull %url) unnamed_addr #0 align 2 personality ptr @__gxx_personality_v0 {
entry:
  store ptr getelementptr inbounds ({ [6 x ptr] }, ptr @_ZTVN3net22QuicClientPromisedInfoE, i64 0, i32 0, i64 2), ptr %this, align 8
  %session_ = getelementptr inbounds i8, ptr %this, i64 8
  store ptr %session, ptr %session_, align 8
  %id_ = getelementptr inbounds i8, ptr %this, i64 16
  store i32 %id, ptr %id_, align 8
  %url_ = getelementptr inbounds i8, ptr %this, i64 24
  tail call void @_ZNSt7__cxx1112basic_stringIcSt11char_traitsIcESaIcEEC1EOS4_(ptr noundef nonnull align 8 dereferenceable(32) %url_, ptr noundef nonnull align 8 dereferenceable(32) %url) #8
  %request_headers_ = getelementptr inbounds i8, ptr %this, i64 56
  tail call void @llvm.memset.p0.i64(ptr noundef nonnull align 8 dereferenceable(40) %request_headers_, i8 0, i64 40, i1 false)
  ret void
}